target datalayout = "e-m:e-p270:32:32-p271:32:32-p272:64:64-i64:64-i128:128-f80:128-n8:16:32:64-S128"
target triple = "x86_64-pc-linux-gnu"

%struct.fd_data = type { ptr, ptr, i64, ptr, i64 }
%struct.fd_buf = type { ptr, i64, i64, i32, i8, i32, i32, i32, i32, i32, i32, i64, ptr, i64, ptr }

@.str.13 = private unnamed_addr constant [37 x i8] c"add_fd: invalid fd passed to add_fd\0A\00", align 1
@.str.14 = private unnamed_addr constant [45 x i8] c"add_fd: Memory allocation failed for fd_buf\0A\00", align 1
@.str.21 = private unnamed_addr constant [53 x i8] c"add_fd: Memory allocation failed for command buffer\0A\00", align 1

; Function Attrs: nounwind uwtable
define internal i32 @buf_init(ptr noundef %0, i32 noundef %1, i32 noundef %2) #0 {
  %4 = alloca i32, align 4
  %5 = alloca ptr, align 8
  %6 = alloca i32, align 4
  %7 = alloca i32, align 4
  store ptr %0, ptr %5, align 8
  store i32 %1, ptr %6, align 4
  store i32 %2, ptr %7, align 4
  %8 = load ptr, ptr %5, align 8
  %9 = getelementptr inbounds %struct.fd_buf, ptr %8, i32 0, i32 2
  store i64 0, ptr %9, align 8
  %10 = load ptr, ptr %5, align 8
  %11 = getelementptr inbounds %struct.fd_buf, ptr %10, i32 0, i32 5
  store i32 0, ptr %11, align 8
  %12 = load ptr, ptr %5, align 8
  %13 = getelementptr inbounds %struct.fd_buf, ptr %12, i32 0, i32 6
  store i32 -1, ptr %13, align 4
  %14 = load ptr, ptr %5, align 8
  %15 = getelementptr inbounds %struct.fd_buf, ptr %14, i32 0, i32 7
  store i32 0, ptr %15, align 8
  %16 = load ptr, ptr %5, align 8
  %17 = getelementptr inbounds %struct.fd_buf, ptr %16, i32 0, i32 8
  store i32 0, ptr %17, align 4
  %18 = load ptr, ptr %5, align 8
  %19 = getelementptr inbounds %struct.fd_buf, ptr %18, i32 0, i32 9
  store i32 -1, ptr %19, align 8
  %20 = load ptr, ptr %5, align 8
  %21 = getelementptr inbounds %struct.fd_buf, ptr %20, i32 0, i32 10
  store i32 0, ptr %21, align 4
  %22 = load ptr, ptr %5, align 8
  %23 = getelementptr inbounds %struct.fd_buf, ptr %22, i32 0, i32 11
  store i64 0, ptr %23, align 8
  %24 = load ptr, ptr %5, align 8
  %25 = getelementptr inbounds %struct.fd_buf, ptr %24, i32 0, i32 12
  store ptr null, ptr %25, align 8
  %26 = load ptr, ptr %5, align 8
  %27 = getelementptr inbounds %struct.fd_buf, ptr %26, i32 0, i32 14
  store ptr null, ptr %27, align 8
  %28 = load ptr, ptr %5, align 8
  %29 = getelementptr inbounds %struct.fd_buf, ptr %28, i32 0, i32 4
  store i8 0, ptr %29, align 4
  %30 = load i32, ptr %6, align 4
  %31 = icmp ne i32 %30, 0
  br i1 %31, label %52, label %32

32:                                               ; preds = %3
  %33 = load ptr, ptr %5, align 8
  %34 = getelementptr inbounds %struct.fd_buf, ptr %33, i32 0, i32 0
  %35 = load ptr, ptr %34, align 8
  %36 = icmp ne ptr %35, null
  br i1 %36, label %51, label %37

37:                                               ; preds = %32
  %38 = load ptr, ptr %5, align 8
  %39 = getelementptr inbounds %struct.fd_buf, ptr %38, i32 0, i32 1
  store i64 4104, ptr %39, align 8
  %40 = load ptr, ptr %5, align 8
  %41 = getelementptr inbounds %struct.fd_buf, ptr %40, i32 0, i32 1
  %42 = load i64, ptr %41, align 8
  %43 = add i64 %42, 1
  %44 = call noalias ptr @malloc(i64 noundef %43) #14
  %45 = load ptr, ptr %5, align 8
  %46 = getelementptr inbounds %struct.fd_buf, ptr %45, i32 0, i32 0
  store ptr %44, ptr %46, align 8
  %47 = icmp ne ptr %44, null
  br i1 %47, label %50, label %48

48:                                               ; preds = %37
  %49 = call i32 (i32, ptr, ...) @logg(i32 noundef 5, ptr noundef @.str.21)
  store i32 -1, ptr %4, align 4
  br label %83

50:                                               ; preds = %37
  br label %51

51:                                               ; preds = %50, %32
  br label %66

52:                                               ; preds = %3
  %53 = load ptr, ptr %5, align 8
  %54 = getelementptr inbounds %struct.fd_buf, ptr %53, i32 0, i32 0
  %55 = load ptr, ptr %54, align 8
  %56 = icmp ne ptr %55, null
  br i1 %56, label %57, label %61

57:                                               ; preds = %52
  %58 = load ptr, ptr %5, align 8
  %59 = getelementptr inbounds %struct.fd_buf, ptr %58, i32 0, i32 0
  %60 = load ptr, ptr %59, align 8
  call void @free(ptr noundef %60) #12
  br label %61

61:                                               ; preds = %57, %52
  %62 = load ptr, ptr %5, align 8
  %63 = getelementptr inbounds %struct.fd_buf, ptr %62, i32 0, i32 1
  store i64 0, ptr %63, align 8
  %64 = load ptr, ptr %5, align 8
  %65 = getelementptr inbounds %struct.fd_buf, ptr %64, i32 0, i32 0
  store ptr null, ptr %65, align 8
  br label %66

66:                                               ; preds = %61, %51
  %67 = load i32, ptr %7, align 4
  %68 = icmp ne i32 %67, 0
  br i1 %68, label %69, label %79

69:                                               ; preds = %66
  %70 = load ptr, ptr %5, align 8
  %71 = getelementptr inbounds %struct.fd_buf, ptr %70, i32 0, i32 13
  %72 = call i64 @time(ptr noundef %71) #12
  %73 = load i32, ptr %7, align 4
  %74 = sext i32 %73 to i64
  %75 = load ptr, ptr %5, align 8
  %76 = getelementptr inbounds %struct.fd_buf, ptr %75, i32 0, i32 13
  %77 = load i64, ptr %76, align 8
  %78 = add nsw i64 %77, %74
  store i64 %78, ptr %76, align 8
  br label %82

79:                                               ; preds = %66
  %80 = load ptr, ptr %5, align 8
  %81 = getelementptr inbounds %struct.fd_buf, ptr %80, i32 0, i32 13
  store i64 0, ptr %81, align 8
  br label %82

82:                                               ; preds = %79, %69
  store i32 0, ptr %4, align 4
  br label %83

83:                                               ; preds = %82, %48
  %84 = load i32, ptr %4, align 4
  ret i32 %84
}

; Function Attrs: nounwind uwtable
define dso_local i32 @fds_add(ptr noundef %0, i32 noundef %1, i32 noundef %2, i32 noundef %3) #0 {
  %5 = alloca i32, align 4
  %6 = alloca ptr, align 8
  %7 = alloca i32, align 4
  %8 = alloca i32, align 4
  %9 = alloca i32, align 4
  %10 = alloca ptr, align 8
  %11 = alloca i32, align 4
  store ptr %0, ptr %6, align 8
  store i32 %1, ptr %7, align 4
  store i32 %2, ptr %8, align 4
  store i32 %3, ptr %9, align 4
  %12 = load i32, ptr %7, align 4
  %13 = icmp slt i32 %12, 0
  br i1 %13, label %14, label %16

14:                                               ; preds = %4
  %15 = call i32 (i32, ptr, ...) @logg(i32 noundef 5, ptr noundef @.str.13)
  store i32 -1, ptr %5, align 4
  br label %104

16:                                               ; preds = %4
  store i32 0, ptr %11, align 4
  br label %17

17:                                               ; preds = %49, %16
  %18 = load i32, ptr %11, align 4
  %19 = zext i32 %18 to i64
  %20 = load ptr, ptr %6, align 8
  %21 = getelementptr inbounds %struct.fd_data, ptr %20, i32 0, i32 2
  %22 = load i64, ptr %21, align 8
  %23 = icmp ult i64 %19, %22
  br i1 %23, label %24, label %52

24:                                               ; preds = %17
  %25 = load ptr, ptr %6, align 8
  %26 = getelementptr inbounds %struct.fd_data, ptr %25, i32 0, i32 1
  %27 = load ptr, ptr %26, align 8
  %28 = load i32, ptr %11, align 4
  %29 = zext i32 %28 to i64
  %30 = getelementptr inbounds %struct.fd_buf, ptr %27, i64 %29
  %31 = getelementptr inbounds %struct.fd_buf, ptr %30, i32 0, i32 3
  %32 = load i32, ptr %31, align 8
  %33 = load i32, ptr %7, align 4
  %34 = icmp eq i32 %32, %33
  br i1 %34, label %35, label %48

35:                                               ; preds = %24
  %36 = load ptr, ptr %6, align 8
  %37 = getelementptr inbounds %struct.fd_data, ptr %36, i32 0, i32 1
  %38 = load ptr, ptr %37, align 8
  %39 = load i32, ptr %11, align 4
  %40 = zext i32 %39 to i64
  %41 = getelementptr inbounds %struct.fd_buf, ptr %38, i64 %40
  %42 = load i32, ptr %8, align 4
  %43 = load i32, ptr %9, align 4
  %44 = call i32 @buf_init(ptr noundef %41, i32 noundef %42, i32 noundef %43)
  %45 = icmp slt i32 %44, 0
  br i1 %45, label %46, label %47

46:                                               ; preds = %35
  store i32 -1, ptr %5, align 4
  br label %104

47:                                               ; preds = %35
  store i32 0, ptr %5, align 4
  br label %104

48:                                               ; preds = %24
  br label %49

49:                                               ; preds = %48
  %50 = load i32, ptr %11, align 4
  %51 = add i32 %50, 1
  store i32 %51, ptr %11, align 4
  br label %17

52:                                               ; preds = %17
  %53 = load i32, ptr %11, align 4
  %54 = add i32 %53, 1
  store i32 %54, ptr %11, align 4
  %55 = load ptr, ptr %6, align 8
  %56 = getelementptr inbounds %struct.fd_data, ptr %55, i32 0, i32 1
  %57 = load ptr, ptr %56, align 8
  %58 = load i32, ptr %11, align 4
  %59 = zext i32 %58 to i64
  %60 = mul i64 %59, 88
  %61 = call ptr @realloc(ptr noundef %57, i64 noundef %60) #19
  store ptr %61, ptr %10, align 8
  %62 = load ptr, ptr %10, align 8
  %63 = icmp ne ptr %62, null
  br i1 %63, label %66, label %64

64:                                               ; preds = %52
  %65 = call i32 (i32, ptr, ...) @logg(i32 noundef 5, ptr noundef @.str.14)
  store i32 -1, ptr %5, align 4
  br label %104

66:                                               ; preds = %52
  %67 = load ptr, ptr %10, align 8
  %68 = load ptr, ptr %6, align 8
  %69 = getelementptr inbounds %struct.fd_data, ptr %68, i32 0, i32 1
  store ptr %67, ptr %69, align 8
  %70 = load i32, ptr %11, align 4
  %71 = zext i32 %70 to i64
  %72 = load ptr, ptr %6, align 8
  %73 = getelementptr inbounds %struct.fd_data, ptr %72, i32 0, i32 2
  store i64 %71, ptr %73, align 8
  %74 = load ptr, ptr %6, align 8
  %75 = getelementptr inbounds %struct.fd_data, ptr %74, i32 0, i32 1
  %76 = load ptr, ptr %75, align 8
  %77 = load i32, ptr %11, align 4
  %78 = sub i32 %77, 1
  %79 = zext i32 %78 to i64
  %80 = getelementptr inbounds %struct.fd_buf, ptr %76, i64 %79
  %81 = getelementptr inbounds %struct.fd_buf, ptr %80, i32 0, i32 0
  store ptr null, ptr %81, align 8
  %82 = load ptr, ptr %6, align 8
  %83 = getelementptr inbounds %struct.fd_data, ptr %82, i32 0, i32 1
  %84 = load ptr, ptr %83, align 8
  %85 = load i32, ptr %11, align 4
  %86 = sub i32 %85, 1
  %87 = zext i32 %86 to i64
  %88 = getelementptr inbounds %struct.fd_buf, ptr %84, i64 %87
  %89 = load i32, ptr %8, align 4
  %90 = load i32, ptr %9, align 4
  %91 = call i32 @buf_init(ptr noundef %88, i32 noundef %89, i32 noundef %90)
  %92 = icmp slt i32 %91, 0
  br i1 %92, label %93, label %94

93:                                               ; preds = %66
  store i32 -1, ptr %5, align 4
  br label %104

94:                                               ; preds = %66
  %95 = load i32, ptr %7, align 4
  %96 = load ptr, ptr %6, align 8
  %97 = getelementptr inbounds %struct.fd_data, ptr %96, i32 0, i32 1
  %98 = load ptr, ptr %97, align 8
  %99 = load i32, ptr %11, align 4
  %100 = sub i32 %99, 1
  %101 = zext i32 %100 to i64
  %102 = getelementptr inbounds %struct.fd_buf, ptr %98, i64 %101
  %103 = getelementptr inbounds %struct.fd_buf, ptr %102, i32 0, i32 3
  store i32 %95, ptr %103, align 8
  store i32 0, ptr %5, align 4
  br label %104

104:                                              ; preds = %94, %93, %64, %47, %46, %14
  %105 = load i32, ptr %5, align 4
  ret i32 %105
}