; Function Attrs: nounwind uwtable
define dso_local noundef i32 @fds_add(ptr nocapture noundef %0, i32 noundef %1, i32 noundef %2, i32 noundef %3) local_unnamed_addr #0 {
  %5 = icmp slt i32 %1, 0
  br i1 %5, label %8, label %.preheader

.preheader:                                       ; preds = %4
  %6 = getelementptr inbounds i8, ptr %0, i64 16
  %7 = load i64, ptr %6, align 8
  %.not47 = icmp eq i64 %7, 0
  %.phi.trans.insert = getelementptr inbounds i8, ptr %0, i64 8
  %.pre = load ptr, ptr %.phi.trans.insert, align 8
  br i1 %.not47, label %._crit_edge, label %.lr.ph

8:                                                ; preds = %4
  %9 = tail call i32 (i32, ptr, ...) @logg(i32 noundef 5, ptr noundef nonnull @.str.13) #21
  br label %buf_init.exit.thread

.lr.ph:                                           ; preds = %.preheader, %40
  %10 = phi i64 [ %42, %40 ], [ 0, %.preheader ]
  %.045 = phi i32 [ %41, %40 ], [ 0, %.preheader ]
  %11 = getelementptr inbounds %struct.fd_buf, ptr %.pre, i64 %10
  %12 = getelementptr inbounds i8, ptr %11, i64 24
  %13 = load i32, ptr %12, align 8
  %14 = icmp eq i32 %13, %1
  br i1 %14, label %15, label %40

15:                                               ; preds = %.lr.ph
  %16 = getelementptr inbounds i8, ptr %11, i64 16
  store i64 0, ptr %16, align 8
  %17 = getelementptr inbounds i8, ptr %11, i64 32
  store <4 x i32> <i32 0, i32 -1, i32 0, i32 0>, ptr %17, align 8
  %18 = getelementptr inbounds i8, ptr %11, i64 48
  store i32 -1, ptr %18, align 8
  %19 = getelementptr inbounds i8, ptr %11, i64 52
  %20 = getelementptr inbounds i8, ptr %11, i64 80
  store ptr null, ptr %20, align 8
  %21 = getelementptr inbounds i8, ptr %11, i64 28
  store i8 0, ptr %21, align 4
  %.not.i = icmp eq i32 %2, 0
  tail call void @llvm.memset.p0.i64(ptr noundef nonnull align 4 dereferenceable(20) %19, i8 0, i64 20, i1 false)
  %22 = load ptr, ptr %11, align 8
  %.not27.i = icmp eq ptr %22, null
  br i1 %.not.i, label %23, label %27

23:                                               ; preds = %15
  br i1 %.not27.i, label %24, label %30

24:                                               ; preds = %23
  %25 = getelementptr inbounds i8, ptr %11, i64 8
  store i64 4104, ptr %25, align 8
  %26 = tail call noalias dereferenceable_or_null(4105) ptr @malloc(i64 noundef 4105) #23
  store ptr %26, ptr %11, align 8
  %.not28.i = icmp eq ptr %26, null
  br i1 %.not28.i, label %38, label %30

27:                                               ; preds = %15
  br i1 %.not27.i, label %29, label %28

28:                                               ; preds = %27
  tail call void @free(ptr noundef nonnull %22) #21
  br label %29

29:                                               ; preds = %28, %27
  tail call void @llvm.memset.p0.i64(ptr noundef nonnull align 8 dereferenceable(16) %11, i8 0, i64 16, i1 false)
  br label %30

30:                                               ; preds = %29, %24, %23
  %.not30.i = icmp eq i32 %3, 0
  %31 = getelementptr inbounds i8, ptr %11, i64 72
  br i1 %.not30.i, label %37, label %32

32:                                               ; preds = %30
  %33 = tail call i64 @time(ptr noundef nonnull %31) #21
  %34 = sext i32 %3 to i64
  %35 = load i64, ptr %31, align 8
  %36 = add nsw i64 %35, %34
  store i64 %36, ptr %31, align 8
  br label %buf_init.exit.thread

37:                                               ; preds = %30
  store i64 0, ptr %31, align 8
  br label %buf_init.exit.thread

38:                                               ; preds = %24
  %39 = tail call i32 (i32, ptr, ...) @logg(i32 noundef 5, ptr noundef nonnull @.str.21) #21
  br label %buf_init.exit.thread

40:                                               ; preds = %.lr.ph
  %41 = add i32 %.045, 1
  %42 = zext i32 %41 to i64
  %43 = icmp ugt i64 %7, %42
  br i1 %43, label %.lr.ph, label %._crit_edge.loopexit

._crit_edge.loopexit:                             ; preds = %40
  %44 = add i32 %.045, 2
  %45 = zext i32 %44 to i64
  br label %._crit_edge

._crit_edge:                                      ; preds = %.preheader, %._crit_edge.loopexit
  %.0.lcssa = phi i64 [ %45, %._crit_edge.loopexit ], [ 1, %.preheader ]
  %.lcssa41 = phi i64 [ %42, %._crit_edge.loopexit ], [ 0, %.preheader ]
  %46 = getelementptr inbounds i8, ptr %0, i64 8
  %47 = mul nuw nsw i64 %.0.lcssa, 88
  %48 = tail call ptr @realloc(ptr noundef %.pre, i64 noundef %47) #28
  %.not = icmp eq ptr %48, null
  br i1 %.not, label %49, label %51

49:                                               ; preds = %._crit_edge
  %50 = tail call i32 (i32, ptr, ...) @logg(i32 noundef 5, ptr noundef nonnull @.str.14) #21
  br label %buf_init.exit.thread

51:                                               ; preds = %._crit_edge
  store ptr %48, ptr %46, align 8
  store i64 %.0.lcssa, ptr %6, align 8
  %52 = getelementptr inbounds %struct.fd_buf, ptr %48, i64 %.lcssa41
  %53 = getelementptr inbounds i8, ptr %52, i64 16
  store i64 0, ptr %53, align 8
  %54 = getelementptr inbounds i8, ptr %52, i64 32
  store <4 x i32> <i32 0, i32 -1, i32 0, i32 0>, ptr %54, align 8
  %55 = getelementptr inbounds i8, ptr %52, i64 48
  store i32 -1, ptr %55, align 8
  %56 = getelementptr inbounds i8, ptr %52, i64 52
  %57 = getelementptr inbounds i8, ptr %52, i64 80
  store ptr null, ptr %57, align 8
  %58 = getelementptr inbounds i8, ptr %52, i64 28
  store i8 0, ptr %58, align 4
  %.not.i32 = icmp eq i32 %2, 0
  tail call void @llvm.memset.p0.i64(ptr noundef nonnull align 4 dereferenceable(20) %56, i8 0, i64 20, i1 false)
  br i1 %.not.i32, label %59, label %62

59:                                               ; preds = %51
  %60 = getelementptr inbounds i8, ptr %52, i64 8
  store i64 4104, ptr %60, align 8
  %61 = tail call noalias dereferenceable_or_null(4105) ptr @malloc(i64 noundef 4105) #23
  store ptr %61, ptr %52, align 8
  %.not28.i36 = icmp eq ptr %61, null
  br i1 %.not28.i36, label %buf_init.exit37, label %63

62:                                               ; preds = %51
  tail call void @llvm.memset.p0.i64(ptr noundef nonnull align 8 dereferenceable(16) %52, i8 0, i64 16, i1 false)
  br label %63

63:                                               ; preds = %62, %59
  %.not30.i34 = icmp eq i32 %3, 0
  %64 = getelementptr inbounds i8, ptr %52, i64 72
  br i1 %.not30.i34, label %71, label %65

65:                                               ; preds = %63
  %66 = tail call i64 @time(ptr noundef nonnull %64) #21
  %67 = sext i32 %3 to i64
  %68 = load i64, ptr %64, align 8
  %69 = add nsw i64 %68, %67
  %.pre51 = load ptr, ptr %46, align 8
  br label %71

buf_init.exit37:                                  ; preds = %59
  %70 = tail call i32 (i32, ptr, ...) @logg(i32 noundef 5, ptr noundef nonnull @.str.21) #21
  br label %buf_init.exit.thread

71:                                               ; preds = %63, %65
  %72 = phi ptr [ %.pre51, %65 ], [ %48, %63 ]
  %storemerge = phi i64 [ %69, %65 ], [ 0, %63 ]
  store i64 %storemerge, ptr %64, align 8
  %73 = getelementptr inbounds %struct.fd_buf, ptr %72, i64 %.lcssa41, i32 3
  store i32 %1, ptr %73, align 8
  br label %buf_init.exit.thread

buf_init.exit.thread:                             ; preds = %32, %37, %buf_init.exit37, %38, %71, %49, %8
  %.028 = phi i32 [ -1, %8 ], [ 0, %71 ], [ -1, %49 ], [ -1, %buf_init.exit37 ], [ -1, %38 ], [ 0, %37 ], [ 0, %32 ]
  ret i32 %.028
}